; Function Attrs: mustprogress uwtable
define hidden void @_ZN4cvc58internal3smt10Assertions7refreshEv(ptr noundef nonnull align 8 dereferenceable(272) %this) local_unnamed_addr #3 align 2 personality ptr @__gxx_personality_v0 {
entry:
  %agg.tmp = alloca %"class.cvc5::internal::NodeTemplate", align 8
  %d_globalDefineFunLemmas = getelementptr inbounds i8, ptr %this, i64 176
  %_M_finish.i = getelementptr inbounds i8, ptr %this, i64 184
  %0 = load ptr, ptr %_M_finish.i, align 8
  %1 = load ptr, ptr %d_globalDefineFunLemmas, align 8
  %sub.ptr.lhs.cast.i = ptrtoint ptr %0 to i64
  %sub.ptr.rhs.cast.i = ptrtoint ptr %1 to i64
  %sub.ptr.sub.i = sub i64 %sub.ptr.lhs.cast.i, %sub.ptr.rhs.cast.i
  %sub.ptr.div.i = ashr exact i64 %sub.ptr.sub.i, 3
  %d_globalDefineFunLemmasIndex = getelementptr inbounds i8, ptr %this, i64 200
  %d_data.i = getelementptr inbounds i8, ptr %this, i64 240
  %2 = load i64, ptr %d_data.i, align 8
  %cmp4 = icmp ult i64 %2, %sub.ptr.div.i
  br i1 %cmp4, label %for.body, label %for.end

for.body:                                         ; preds = %entry, %for.body
  %i.05 = phi i64 [ %inc, %for.body ], [ %2, %entry ]
  %3 = load ptr, ptr %d_globalDefineFunLemmas, align 8
  %add.ptr.i = getelementptr inbounds %"class.cvc5::internal::NodeTemplate.262", ptr %3, i64 %i.05
  %4 = load ptr, ptr %add.ptr.i, align 8
  store ptr %4, ptr %agg.tmp, align 8
  call void @_ZN4cvc58internal3smt10Assertions10addFormulaENS0_12NodeTemplateILb0EEEbb(ptr noundef nonnull align 8 dereferenceable(272) %this, ptr noundef nonnull %agg.tmp, i1 noundef zeroext true, i1 noundef zeroext false)
  %inc = add i64 %i.05, 1
  %exitcond.not = icmp eq i64 %inc, %sub.ptr.div.i
  br i1 %exitcond.not, label %for.end, label %for.body, !llvm.loop !6

for.end:                                          ; preds = %for.body, %entry
  %d_pScope.i.i.i = getelementptr inbounds i8, ptr %this, i64 208
  %5 = load ptr, ptr %d_pScope.i.i.i, align 8
  %6 = load ptr, ptr %5, align 8
  %_M_finish.i.i.i.i.i.i.i = getelementptr inbounds i8, ptr %6, i64 16
  %7 = load ptr, ptr %_M_finish.i.i.i.i.i.i.i, align 8
  %add.ptr.i.i.i.i.i.i.i = getelementptr inbounds i8, ptr %7, i64 -8
  %8 = load ptr, ptr %add.ptr.i.i.i.i.i.i.i, align 8
  %cmp.i.i.i.i = icmp eq ptr %8, %5
  br i1 %cmp.i.i.i.i, label %_ZN4cvc57context3CDOImEaSERKm.exit, label %if.then.i.i.i

if.then.i.i.i:                                    ; preds = %for.end
  call void @_ZN4cvc57context10ContextObj6updateEv(ptr noundef nonnull align 8 dereferenceable(40) %d_globalDefineFunLemmasIndex)
  br label %_ZN4cvc57context3CDOImEaSERKm.exit

_ZN4cvc57context3CDOImEaSERKm.exit:               ; preds = %for.end, %if.then.i.i.i
  store i64 %sub.ptr.div.i, ptr %d_data.i, align 8
  ret void
}